; Function Attrs: mustprogress nofree norecurse nosync nounwind willreturn memory(none) uwtable
define i32 @ubidi_getMirror_77(i32 noundef %0) local_unnamed_addr #2 {
  %2 = icmp ult i32 %0, 55296
  br i1 %2, label %3, label %5

3:                                                ; preds = %1
  %4 = lshr i32 %0, 5
  br label %.sink.split

5:                                                ; preds = %1
  %6 = icmp ult i32 %0, 65536
  br i1 %6, label %7, label %12

7:                                                ; preds = %5
  %8 = icmp samesign ult i32 %0, 56320
  %9 = select i1 %8, i32 320, i32 0
  %10 = lshr i32 %0, 5
  %11 = add nuw nsw i32 %9, %10
  br label %.sink.split

12:                                               ; preds = %5
  %13 = icmp ugt i32 %0, 1114111
  br i1 %13, label %32, label %14

14:                                               ; preds = %12
  %15 = lshr i32 %0, 11
  %16 = zext nneg i32 %15 to i64
  %17 = getelementptr inbounds nuw i16, ptr @_ZL21ubidi_props_trieIndex, i64 %16
  %18 = getelementptr inbounds nuw i8, ptr %17, i64 4160
  %19 = load i16, ptr %18, align 2, !tbaa !20
  %20 = zext i16 %19 to i32
  %21 = lshr i32 %0, 5
  %22 = and i32 %21, 63
  %23 = add nuw nsw i32 %22, %20
  br label %.sink.split

.sink.split:                                      ; preds = %3, %14, %7
  %.sink20 = phi i32 [ %11, %7 ], [ %23, %14 ], [ %4, %3 ]
  %24 = zext nneg i32 %.sink20 to i64
  %25 = getelementptr inbounds nuw i16, ptr @_ZL21ubidi_props_trieIndex, i64 %24
  %26 = load i16, ptr %25, align 2, !tbaa !20
  %27 = zext i16 %26 to i32
  %28 = shl nuw nsw i32 %27, 2
  %29 = and i32 %0, 31
  %30 = add nuw nsw i32 %28, %29
  %31 = zext nneg i32 %30 to i64
  br label %32

32:                                               ; preds = %.sink.split, %12
  %33 = phi i64 [ 3796, %12 ], [ %31, %.sink.split ]
  %34 = getelementptr inbounds nuw i16, ptr @_ZL21ubidi_props_trieIndex, i64 %33
  %35 = load i16, ptr %34, align 2, !tbaa !20
  %36 = ashr i16 %35, 13
  %.not.i = icmp eq i16 %36, -4
  br i1 %.not.i, label %.preheader.i, label %37

37:                                               ; preds = %32
  %38 = sext i16 %36 to i32
  %39 = add nsw i32 %0, %38
  br label %_ZL9getMirrorit.exit

.preheader.i:                                     ; preds = %32, %50
  %indvars.iv.i = phi i64 [ %indvars.iv.next.i, %50 ], [ 0, %32 ]
  %40 = getelementptr inbounds nuw i32, ptr @_ZL19ubidi_props_mirrors, i64 %indvars.iv.i
  %41 = load i32, ptr %40, align 4, !tbaa !7
  %42 = and i32 %41, 2097151
  %43 = icmp eq i32 %0, %42
  br i1 %43, label %44, label %50

44:                                               ; preds = %.preheader.i
  %45 = lshr i32 %41, 21
  %46 = zext nneg i32 %45 to i64
  %47 = getelementptr inbounds nuw i32, ptr @_ZL19ubidi_props_mirrors, i64 %46
  %48 = load i32, ptr %47, align 4, !tbaa !7
  %49 = and i32 %48, 2097151
  br label %_ZL9getMirrorit.exit

50:                                               ; preds = %.preheader.i
  %51 = icmp slt i32 %0, %42
  %indvars.iv.next.i = add nuw nsw i64 %indvars.iv.i, 1
  %exitcond.not.i = icmp eq i64 %indvars.iv.next.i, 40
  %or.cond.i = select i1 %51, i1 true, i1 %exitcond.not.i
  br i1 %or.cond.i, label %_ZL9getMirrorit.exit, label %.preheader.i, !llvm.loop !22

_ZL9getMirrorit.exit:                             ; preds = %50, %37, %44
  %.0.i = phi i32 [ %39, %37 ], [ %49, %44 ], [ %0, %50 ]
  ret i32 %.0.i
}